; Function Attrs: nounwind uwtable
define internal ptr @__itt_track_group_create_init_3_0(ptr noundef %0, i32 noundef %1) #0 {
  %3 = load volatile i64, ptr getelementptr inbounds nuw (i8, ptr @__itt__ittapi_global, i64 32), align 8, !tbaa !3
  %4 = icmp eq i64 %3, 0
  %5 = load ptr, ptr getelementptr inbounds nuw (i8, ptr @__itt__ittapi_global, i64 136), align 8
  %6 = icmp eq ptr %5, null
  %or.cond = select i1 %4, i1 %6, i1 false
  br i1 %or.cond, label %7, label %9

7:                                                ; preds = %2
  %8 = tail call i32 @__itt_init_ittlib(ptr noundef null, i32 noundef -1)
  br label %9

9:                                                ; preds = %7, %2
  %10 = load ptr, ptr @__itt_track_group_create_ptr__3_0, align 8, !tbaa !20
  %11 = icmp ne ptr %10, null
  %12 = icmp ne ptr %10, @__itt_track_group_create_init_3_0
  %or.cond3 = and i1 %11, %12
  br i1 %or.cond3, label %13, label %15

13:                                               ; preds = %9
  %14 = tail call ptr %10(ptr noundef %0, i32 noundef %1) #14
  br label %15

15:                                               ; preds = %9, %13
  %.0 = phi ptr [ %14, %13 ], [ null, %9 ]
  ret ptr %.0
}